target datalayout = "e-m:e-p270:32:32-p271:32:32-p272:64:64-i64:64-i128:128-f80:128-n8:16:32:64-S128"
target triple = "x86_64-unknown-linux-gnu"

%class.symbol = type { ptr }
%class.array_decl_plugin = type { %class.decl_plugin.base, %class.symbol, %class.symbol, %class.symbol, %class.symbol, %class.symbol, %class.symbol, %class.symbol, %class.symbol, %class.symbol, %class.symbol, %class.symbol, %class.symbol, %class.symbol, %class.symbol }
%class.decl_plugin.base = type <{ ptr, ptr, i32 }>
%class.decl_plugin = type <{ ptr, ptr, i32, [4 x i8] }>

@.str = private unnamed_addr constant [6 x i8] c"store\00", align 1
@.str.1 = private unnamed_addr constant [7 x i8] c"select\00", align 1
@.str.2 = private unnamed_addr constant [6 x i8] c"const\00", align 1
@.str.3 = private unnamed_addr constant [8 x i8] c"default\00", align 1
@.str.4 = private unnamed_addr constant [4 x i8] c"map\00", align 1
@.str.5 = private unnamed_addr constant [6 x i8] c"union\00", align 1
@.str.6 = private unnamed_addr constant [13 x i8] c"intersection\00", align 1
@.str.7 = private unnamed_addr constant [9 x i8] c"setminus\00", align 1
@.str.8 = private unnamed_addr constant [11 x i8] c"complement\00", align 1
@.str.9 = private unnamed_addr constant [7 x i8] c"subset\00", align 1
@.str.10 = private unnamed_addr constant [10 x i8] c"array-ext\00", align 1
@.str.11 = private unnamed_addr constant [9 x i8] c"as-array\00", align 1
@.str.12 = private unnamed_addr constant [13 x i8] c"set-has-size\00", align 1
@.str.13 = private unnamed_addr constant [5 x i8] c"card\00", align 1
@_ZTV11decl_plugin = external unnamed_addr constant { [23 x ptr] }, align 8

; Function Attrs: mustprogress nounwind uwtable
define linkonce_odr hidden void @_ZN11decl_pluginD2Ev(ptr noundef nonnull align 8 dereferenceable(20) %this) unnamed_addr #5 comdat align 2 {
entry:
  %this.addr = alloca ptr, align 8
  store ptr %this, ptr %this.addr, align 8
  ret void
}

; Function Attrs: mustprogress nounwind uwtable
define linkonce_odr hidden void @_ZN11decl_pluginC2Ev(ptr noundef nonnull align 8 dereferenceable(20) %this) unnamed_addr #5 comdat align 2 {
entry:
  %this.addr = alloca ptr, align 8
  store ptr %this, ptr %this.addr, align 8
  %this1 = load ptr, ptr %this.addr, align 8
  store ptr getelementptr inbounds ({ [23 x ptr] }, ptr @_ZTV11decl_plugin, i32 0, i32 0, i32 2), ptr %this1, align 8
  %m_manager = getelementptr inbounds %class.decl_plugin, ptr %this1, i32 0, i32 1
  store ptr null, ptr %m_manager, align 8
  %m_family_id = getelementptr inbounds %class.decl_plugin, ptr %this1, i32 0, i32 2
  store i32 -1, ptr %m_family_id, align 8
  ret void
}

; Function Attrs: mustprogress uwtable
define hidden void @_ZN17array_decl_pluginC2Ev(ptr noundef nonnull align 8 dereferenceable(136) %this) unnamed_addr #4 align 2 personality ptr @__gxx_personality_v0 {
entry:
  %this.addr = alloca ptr, align 8
  %exn.slot = alloca ptr, align 8
  %ehselector.slot = alloca i32, align 4
  store ptr %this, ptr %this.addr, align 8
  %this1 = load ptr, ptr %this.addr, align 8
  call void @_ZN11decl_pluginC2Ev(ptr noundef nonnull align 8 dereferenceable(20) %this1) #3
  store ptr getelementptr inbounds ({ [23 x ptr] }, ptr @_ZTV17array_decl_plugin, i32 0, i32 0, i32 2), ptr %this1, align 8
  %m_store_sym = getelementptr inbounds %class.array_decl_plugin, ptr %this1, i32 0, i32 1
  invoke void @_ZN6symbolC1EPKc(ptr noundef nonnull align 8 dereferenceable(8) %m_store_sym, ptr noundef @.str)
          to label %invoke.cont unwind label %lpad

invoke.cont:                                      ; preds = %entry
  %m_select_sym = getelementptr inbounds %class.array_decl_plugin, ptr %this1, i32 0, i32 2
  invoke void @_ZN6symbolC1EPKc(ptr noundef nonnull align 8 dereferenceable(8) %m_select_sym, ptr noundef @.str.1)
          to label %invoke.cont2 unwind label %lpad

invoke.cont2:                                     ; preds = %invoke.cont
  %m_const_sym = getelementptr inbounds %class.array_decl_plugin, ptr %this1, i32 0, i32 3
  invoke void @_ZN6symbolC1EPKc(ptr noundef nonnull align 8 dereferenceable(8) %m_const_sym, ptr noundef @.str.2)
          to label %invoke.cont3 unwind label %lpad

invoke.cont3:                                     ; preds = %invoke.cont2
  %m_default_sym = getelementptr inbounds %class.array_decl_plugin, ptr %this1, i32 0, i32 4
  invoke void @_ZN6symbolC1EPKc(ptr noundef nonnull align 8 dereferenceable(8) %m_default_sym, ptr noundef @.str.3)
          to label %invoke.cont4 unwind label %lpad

invoke.cont4:                                     ; preds = %invoke.cont3
  %m_map_sym = getelementptr inbounds %class.array_decl_plugin, ptr %this1, i32 0, i32 5
  invoke void @_ZN6symbolC1EPKc(ptr noundef nonnull align 8 dereferenceable(8) %m_map_sym, ptr noundef @.str.4)
          to label %invoke.cont5 unwind label %lpad

invoke.cont5:                                     ; preds = %invoke.cont4
  %m_set_union_sym = getelementptr inbounds %class.array_decl_plugin, ptr %this1, i32 0, i32 6
  invoke void @_ZN6symbolC1EPKc(ptr noundef nonnull align 8 dereferenceable(8) %m_set_union_sym, ptr noundef @.str.5)
          to label %invoke.cont6 unwind label %lpad

invoke.cont6:                                     ; preds = %invoke.cont5
  %m_set_intersect_sym = getelementptr inbounds %class.array_decl_plugin, ptr %this1, i32 0, i32 7
  invoke void @_ZN6symbolC1EPKc(ptr noundef nonnull align 8 dereferenceable(8) %m_set_intersect_sym, ptr noundef @.str.6)
          to label %invoke.cont7 unwind label %lpad

invoke.cont7:                                     ; preds = %invoke.cont6
  %m_set_difference_sym = getelementptr inbounds %class.array_decl_plugin, ptr %this1, i32 0, i32 8
  invoke void @_ZN6symbolC1EPKc(ptr noundef nonnull align 8 dereferenceable(8) %m_set_difference_sym, ptr noundef @.str.7)
          to label %invoke.cont8 unwind label %lpad

invoke.cont8:                                     ; preds = %invoke.cont7
  %m_set_complement_sym = getelementptr inbounds %class.array_decl_plugin, ptr %this1, i32 0, i32 9
  invoke void @_ZN6symbolC1EPKc(ptr noundef nonnull align 8 dereferenceable(8) %m_set_complement_sym, ptr noundef @.str.8)
          to label %invoke.cont9 unwind label %lpad

invoke.cont9:                                     ; preds = %invoke.cont8
  %m_set_subset_sym = getelementptr inbounds %class.array_decl_plugin, ptr %this1, i32 0, i32 10
  invoke void @_ZN6symbolC1EPKc(ptr noundef nonnull align 8 dereferenceable(8) %m_set_subset_sym, ptr noundef @.str.9)
          to label %invoke.cont10 unwind label %lpad

invoke.cont10:                                    ; preds = %invoke.cont9
  %m_array_ext_sym = getelementptr inbounds %class.array_decl_plugin, ptr %this1, i32 0, i32 11
  invoke void @_ZN6symbolC1EPKc(ptr noundef nonnull align 8 dereferenceable(8) %m_array_ext_sym, ptr noundef @.str.10)
          to label %invoke.cont11 unwind label %lpad

invoke.cont11:                                    ; preds = %invoke.cont10
  %m_as_array_sym = getelementptr inbounds %class.array_decl_plugin, ptr %this1, i32 0, i32 12
  invoke void @_ZN6symbolC1EPKc(ptr noundef nonnull align 8 dereferenceable(8) %m_as_array_sym, ptr noundef @.str.11)
          to label %invoke.cont12 unwind label %lpad

invoke.cont12:                                    ; preds = %invoke.cont11
  %m_set_has_size_sym = getelementptr inbounds %class.array_decl_plugin, ptr %this1, i32 0, i32 13
  invoke void @_ZN6symbolC1EPKc(ptr noundef nonnull align 8 dereferenceable(8) %m_set_has_size_sym, ptr noundef @.str.12)
          to label %invoke.cont13 unwind label %lpad

invoke.cont13:                                    ; preds = %invoke.cont12
  %m_set_card_sym = getelementptr inbounds %class.array_decl_plugin, ptr %this1, i32 0, i32 14
  invoke void @_ZN6symbolC1EPKc(ptr noundef nonnull align 8 dereferenceable(8) %m_set_card_sym, ptr noundef @.str.13)
          to label %invoke.cont14 unwind label %lpad

invoke.cont14:                                    ; preds = %invoke.cont13
  ret void

lpad:                                             ; preds = %invoke.cont13, %invoke.cont12, %invoke.cont11, %invoke.cont10, %invoke.cont9, %invoke.cont8, %invoke.cont7, %invoke.cont6, %invoke.cont5, %invoke.cont4, %invoke.cont3, %invoke.cont2, %invoke.cont, %entry
  %0 = landingpad { ptr, i32 }
          cleanup
  %1 = extractvalue { ptr, i32 } %0, 0
  store ptr %1, ptr %exn.slot, align 8
  %2 = extractvalue { ptr, i32 } %0, 1
  store i32 %2, ptr %ehselector.slot, align 4
  call void @_ZN11decl_pluginD2Ev(ptr noundef nonnull align 8 dereferenceable(20) %this1) #3
  br label %eh.resume

eh.resume:                                        ; preds = %lpad
  %exn = load ptr, ptr %exn.slot, align 8
  %sel = load i32, ptr %ehselector.slot, align 4
  %lpad.val = insertvalue { ptr, i32 } poison, ptr %exn, 0
  %lpad.val15 = insertvalue { ptr, i32 } %lpad.val, i32 %sel, 1
  resume { ptr, i32 } %lpad.val15
}