; Function Attrs: mustprogress uwtable
define hidden void @_ZN17array_decl_pluginC2Ev(ptr noundef nonnull align 8 dereferenceable(136) %this) unnamed_addr #3 align 2 personality ptr @__gxx_personality_v0 {
entry:
  %m_manager.i = getelementptr inbounds i8, ptr %this, i64 8
  store ptr null, ptr %m_manager.i, align 8
  %m_family_id.i = getelementptr inbounds i8, ptr %this, i64 16
  store i32 -1, ptr %m_family_id.i, align 8
  store ptr getelementptr inbounds ({ [23 x ptr] }, ptr @_ZTV17array_decl_plugin, i64 0, i32 0, i64 2), ptr %this, align 8
  %m_store_sym = getelementptr inbounds i8, ptr %this, i64 24
  tail call void @_ZN6symbolC1EPKc(ptr noundef nonnull align 8 dereferenceable(8) %m_store_sym, ptr noundef nonnull @.str)
  %m_select_sym = getelementptr inbounds i8, ptr %this, i64 32
  tail call void @_ZN6symbolC1EPKc(ptr noundef nonnull align 8 dereferenceable(8) %m_select_sym, ptr noundef nonnull @.str.1)
  %m_const_sym = getelementptr inbounds i8, ptr %this, i64 40
  tail call void @_ZN6symbolC1EPKc(ptr noundef nonnull align 8 dereferenceable(8) %m_const_sym, ptr noundef nonnull @.str.2)
  %m_default_sym = getelementptr inbounds i8, ptr %this, i64 48
  tail call void @_ZN6symbolC1EPKc(ptr noundef nonnull align 8 dereferenceable(8) %m_default_sym, ptr noundef nonnull @.str.3)
  %m_map_sym = getelementptr inbounds i8, ptr %this, i64 56
  tail call void @_ZN6symbolC1EPKc(ptr noundef nonnull align 8 dereferenceable(8) %m_map_sym, ptr noundef nonnull @.str.4)
  %m_set_union_sym = getelementptr inbounds i8, ptr %this, i64 64
  tail call void @_ZN6symbolC1EPKc(ptr noundef nonnull align 8 dereferenceable(8) %m_set_union_sym, ptr noundef nonnull @.str.5)
  %m_set_intersect_sym = getelementptr inbounds i8, ptr %this, i64 72
  tail call void @_ZN6symbolC1EPKc(ptr noundef nonnull align 8 dereferenceable(8) %m_set_intersect_sym, ptr noundef nonnull @.str.6)
  %m_set_difference_sym = getelementptr inbounds i8, ptr %this, i64 80
  tail call void @_ZN6symbolC1EPKc(ptr noundef nonnull align 8 dereferenceable(8) %m_set_difference_sym, ptr noundef nonnull @.str.7)
  %m_set_complement_sym = getelementptr inbounds i8, ptr %this, i64 88
  tail call void @_ZN6symbolC1EPKc(ptr noundef nonnull align 8 dereferenceable(8) %m_set_complement_sym, ptr noundef nonnull @.str.8)
  %m_set_subset_sym = getelementptr inbounds i8, ptr %this, i64 96
  tail call void @_ZN6symbolC1EPKc(ptr noundef nonnull align 8 dereferenceable(8) %m_set_subset_sym, ptr noundef nonnull @.str.9)
  %m_array_ext_sym = getelementptr inbounds i8, ptr %this, i64 104
  tail call void @_ZN6symbolC1EPKc(ptr noundef nonnull align 8 dereferenceable(8) %m_array_ext_sym, ptr noundef nonnull @.str.10)
  %m_as_array_sym = getelementptr inbounds i8, ptr %this, i64 112
  tail call void @_ZN6symbolC1EPKc(ptr noundef nonnull align 8 dereferenceable(8) %m_as_array_sym, ptr noundef nonnull @.str.11)
  %m_set_has_size_sym = getelementptr inbounds i8, ptr %this, i64 120
  tail call void @_ZN6symbolC1EPKc(ptr noundef nonnull align 8 dereferenceable(8) %m_set_has_size_sym, ptr noundef nonnull @.str.12)
  %m_set_card_sym = getelementptr inbounds i8, ptr %this, i64 128
  tail call void @_ZN6symbolC1EPKc(ptr noundef nonnull align 8 dereferenceable(8) %m_set_card_sym, ptr noundef nonnull @.str.13)
  ret void
}